target datalayout = "e-m:e-p270:32:32-p271:32:32-p272:64:64-i64:64-i128:128-f80:128-n8:16:32:64-S128"
target triple = "x86_64-pc-linux-gnu"

%"class.folly::Range" = type { ptr, ptr }
%"class.folly::LogMessage" = type { ptr, i32, i64, %"class.std::chrono::time_point", %"class.folly::Range", i32, %"class.folly::Range", i64, %"class.std::__cxx11::basic_string", %"class.std::__cxx11::basic_string", %"class.std::__cxx11::basic_string" }
%"class.std::chrono::time_point" = type { %"class.std::chrono::duration" }
%"class.std::chrono::duration" = type { i64 }
%"class.std::__cxx11::basic_string" = type { %"struct.std::__cxx11::basic_string<char>::_Alloc_hider", i64, %union.anon }
%"struct.std::__cxx11::basic_string<char>::_Alloc_hider" = type { ptr }
%union.anon = type { i64, [8 x i8] }

@.str = private unnamed_addr constant [19 x i8] c"index out of range\00", align 1

; Function Attrs: mustprogress nounwind uwtable
define linkonce_odr noundef ptr @_ZNK5folly5RangeIPKcE4dataEv(ptr noundef nonnull align 8 dereferenceable(16) %0) #4 comdat align 2 {
  %2 = alloca ptr, align 8
  store ptr %0, ptr %2, align 8, !tbaa !65
  %3 = load ptr, ptr %2, align 8
  %4 = getelementptr inbounds nuw %"class.folly::Range", ptr %3, i32 0, i32 0
  %5 = load ptr, ptr %4, align 8, !tbaa !67
  ret ptr %5
}

; Function Attrs: mustprogress nounwind uwtable
define linkonce_odr noundef zeroext i1 @_ZNK5folly5RangeIPKcE5emptyEv(ptr noundef nonnull align 8 dereferenceable(16) %0) #4 comdat align 2 {
  %2 = alloca ptr, align 8
  store ptr %0, ptr %2, align 8, !tbaa !65
  %3 = load ptr, ptr %2, align 8
  %4 = getelementptr inbounds nuw %"class.folly::Range", ptr %3, i32 0, i32 0
  %5 = load ptr, ptr %4, align 8, !tbaa !67
  %6 = getelementptr inbounds nuw %"class.folly::Range", ptr %3, i32 0, i32 1
  %7 = load ptr, ptr %6, align 8, !tbaa !68
  %8 = icmp eq ptr %5, %7
  ret i1 %8
}

; Function Attrs: mustprogress nounwind uwtable
define linkonce_odr void @_ZN5folly5RangeIPKcEC2ES2_m(ptr noundef nonnull align 8 dereferenceable(16) %0, ptr noundef %1, i64 noundef %2) unnamed_addr #4 comdat align 2 {
  %4 = alloca ptr, align 8
  %5 = alloca ptr, align 8
  %6 = alloca i64, align 8
  store ptr %0, ptr %4, align 8, !tbaa !65
  store ptr %1, ptr %5, align 8, !tbaa !32
  store i64 %2, ptr %6, align 8, !tbaa !36
  %7 = load ptr, ptr %4, align 8
  %8 = getelementptr inbounds nuw %"class.folly::Range", ptr %7, i32 0, i32 0
  %9 = load ptr, ptr %5, align 8, !tbaa !32
  store ptr %9, ptr %8, align 8, !tbaa !67
  %10 = getelementptr inbounds nuw %"class.folly::Range", ptr %7, i32 0, i32 1
  %11 = load ptr, ptr %5, align 8, !tbaa !32
  %12 = load i64, ptr %6, align 8, !tbaa !36
  %13 = getelementptr inbounds nuw i8, ptr %11, i64 %12
  store ptr %13, ptr %10, align 8, !tbaa !68
  ret void
}

; Function Attrs: inlinehint mustprogress nounwind uwtable
define linkonce_odr noundef nonnull align 8 dereferenceable(8) ptr @_ZSt3minImERKT_S2_S2_(ptr noundef nonnull align 8 dereferenceable(8) %0, ptr noundef nonnull align 8 dereferenceable(8) %1) #12 comdat {
  %3 = alloca ptr, align 8
  %4 = alloca ptr, align 8
  %5 = alloca ptr, align 8
  store ptr %0, ptr %4, align 8, !tbaa !69
  store ptr %1, ptr %5, align 8, !tbaa !69
  %6 = load ptr, ptr %5, align 8, !tbaa !69
  %7 = load i64, ptr %6, align 8, !tbaa !36
  %8 = load ptr, ptr %4, align 8, !tbaa !69
  %9 = load i64, ptr %8, align 8, !tbaa !36
  %10 = icmp ult i64 %7, %9
  br i1 %10, label %11, label %13

11:                                               ; preds = %2
  %12 = load ptr, ptr %5, align 8, !tbaa !69
  store ptr %12, ptr %3, align 8
  br label %15

13:                                               ; preds = %2
  %14 = load ptr, ptr %4, align 8, !tbaa !69
  store ptr %14, ptr %3, align 8
  br label %15

15:                                               ; preds = %13, %11
  %16 = load ptr, ptr %3, align 8
  ret ptr %16
}

; Function Attrs: alwaysinline mustprogress noreturn uwtable
define linkonce_odr hidden void @_ZN5folly15throw_exceptionISt12out_of_rangeJRA19_KcEEEvDpOT0_(ptr noundef nonnull align 1 dereferenceable(19) %0) #11 comdat {
  %2 = alloca ptr, align 8
  store ptr %0, ptr %2, align 8, !tbaa !32
  %3 = load ptr, ptr %2, align 8, !tbaa !32
  %4 = getelementptr inbounds [19 x i8], ptr %3, i64 0, i64 0
  call void @_ZN5folly6detail16throw_exception_ISt12out_of_rangeJPKcEEEvDpT0_(ptr noundef %4) #21
  unreachable
}

; Function Attrs: mustprogress nounwind uwtable
define linkonce_odr noundef i64 @_ZNK5folly5RangeIPKcE4sizeEv(ptr noundef nonnull align 8 dereferenceable(16) %0) #4 comdat align 2 {
  %2 = alloca ptr, align 8
  store ptr %0, ptr %2, align 8, !tbaa !65
  %3 = load ptr, ptr %2, align 8
  %4 = getelementptr inbounds nuw %"class.folly::Range", ptr %3, i32 0, i32 1
  %5 = load ptr, ptr %4, align 8, !tbaa !68
  %6 = getelementptr inbounds nuw %"class.folly::Range", ptr %3, i32 0, i32 0
  %7 = load ptr, ptr %6, align 8, !tbaa !67
  %8 = ptrtoint ptr %5 to i64
  %9 = ptrtoint ptr %7 to i64
  %10 = sub i64 %8, %9
  ret i64 %10
}

; Function Attrs: inlinehint mustprogress uwtable
define linkonce_odr noundef i64 @_ZN5folly5rfindIPKcEEmRKNS_5RangeIT_EERKNS5_10value_typeE(ptr noundef nonnull align 8 dereferenceable(16) %0, ptr noundef nonnull align 1 dereferenceable(1) %1) #9 comdat {
  %3 = alloca i64, align 8
  %4 = alloca ptr, align 8
  %5 = alloca ptr, align 8
  %6 = alloca ptr, align 8
  store ptr %0, ptr %4, align 8, !tbaa !65
  store ptr %1, ptr %5, align 8, !tbaa !32
  %7 = load ptr, ptr %4, align 8, !tbaa !65
  %8 = call noundef zeroext i1 @_ZNK5folly5RangeIPKcE5emptyEv(ptr noundef nonnull align 8 dereferenceable(16) %7)
  br i1 %8, label %9, label %10

9:                                                ; preds = %2
  store i64 -1, ptr %3, align 8
  br label %31

10:                                               ; preds = %2
  call void @llvm.lifetime.start.p0(i64 8, ptr %6) #16
  %11 = load ptr, ptr %4, align 8, !tbaa !65
  %12 = call noundef ptr @_ZNK5folly5RangeIPKcE4dataEv(ptr noundef nonnull align 8 dereferenceable(16) %11)
  %13 = load ptr, ptr %5, align 8, !tbaa !32
  %14 = load i8, ptr %13, align 1, !tbaa !35
  %15 = sext i8 %14 to i32
  %16 = load ptr, ptr %4, align 8, !tbaa !65
  %17 = call noundef i64 @_ZNK5folly5RangeIPKcE4sizeEv(ptr noundef nonnull align 8 dereferenceable(16) %16)
  %18 = call noundef ptr @_ZN5folly7memrchrEPKvim(ptr noundef %12, i32 noundef %15, i64 noundef %17) #16
  store ptr %18, ptr %6, align 8, !tbaa !32
  %19 = load ptr, ptr %6, align 8, !tbaa !32
  %20 = icmp eq ptr %19, null
  br i1 %20, label %21, label %22

21:                                               ; preds = %10
  br label %29

22:                                               ; preds = %10
  %23 = load ptr, ptr %6, align 8, !tbaa !32
  %24 = load ptr, ptr %4, align 8, !tbaa !65
  %25 = call noundef ptr @_ZNK5folly5RangeIPKcE4dataEv(ptr noundef nonnull align 8 dereferenceable(16) %24)
  %26 = ptrtoint ptr %23 to i64
  %27 = ptrtoint ptr %25 to i64
  %28 = sub i64 %26, %27
  br label %29

29:                                               ; preds = %22, %21
  %30 = phi i64 [ -1, %21 ], [ %28, %22 ]
  store i64 %30, ptr %3, align 8
  call void @llvm.lifetime.end.p0(i64 8, ptr %6) #16
  br label %31

31:                                               ; preds = %29, %9
  %32 = load i64, ptr %3, align 8
  ret i64 %32
}

; Function Attrs: mustprogress nounwind uwtable
define linkonce_odr { ptr, ptr } @_ZNK5folly5RangeIPKcE11castToConstEv(ptr noundef nonnull align 8 dereferenceable(16) %0) #4 comdat align 2 {
  %2 = alloca %"class.folly::Range", align 8
  %3 = alloca ptr, align 8
  store ptr %0, ptr %3, align 8, !tbaa !65
  %4 = load ptr, ptr %3, align 8
  call void @llvm.memcpy.p0.p0.i64(ptr align 8 %2, ptr align 8 %4, i64 16, i1 false), !tbaa.struct !31
  %5 = load { ptr, ptr }, ptr %2, align 8
  ret { ptr, ptr } %5
}

; Function Attrs: mustprogress uwtable
define linkonce_odr { ptr, ptr } @_ZNK5folly5RangeIPKcE8subpieceEmm(ptr noundef nonnull align 8 dereferenceable(16) %0, i64 noundef %1, i64 noundef %2) #0 comdat align 2 {
  %4 = alloca %"class.folly::Range", align 8
  %5 = alloca ptr, align 8
  %6 = alloca i64, align 8
  %7 = alloca i64, align 8
  %8 = alloca i64, align 8
  store ptr %0, ptr %5, align 8, !tbaa !65
  store i64 %1, ptr %6, align 8, !tbaa !36
  store i64 %2, ptr %7, align 8, !tbaa !36
  %9 = load ptr, ptr %5, align 8
  %10 = load i64, ptr %6, align 8, !tbaa !36
  %11 = call noundef i64 @_ZNK5folly5RangeIPKcE4sizeEv(ptr noundef nonnull align 8 dereferenceable(16) %9)
  %12 = icmp ugt i64 %10, %11
  %13 = zext i1 %12 to i64
  %14 = call i64 @llvm.expect.i64(i64 %13, i64 0)
  %15 = icmp ne i64 %14, 0
  br i1 %15, label %16, label %17

16:                                               ; preds = %3
  call void @_ZN5folly15throw_exceptionISt12out_of_rangeJRA19_KcEEEvDpOT0_(ptr noundef nonnull align 1 dereferenceable(19) @.str) #20
  unreachable

17:                                               ; preds = %3
  %18 = getelementptr inbounds nuw %"class.folly::Range", ptr %9, i32 0, i32 0
  %19 = load ptr, ptr %18, align 8, !tbaa !67
  %20 = load i64, ptr %6, align 8, !tbaa !36
  %21 = getelementptr inbounds nuw i8, ptr %19, i64 %20
  call void @llvm.lifetime.start.p0(i64 8, ptr %8) #16
  %22 = call noundef i64 @_ZNK5folly5RangeIPKcE4sizeEv(ptr noundef nonnull align 8 dereferenceable(16) %9)
  %23 = load i64, ptr %6, align 8, !tbaa !36
  %24 = sub i64 %22, %23
  store i64 %24, ptr %8, align 8, !tbaa !36
  %25 = call noundef nonnull align 8 dereferenceable(8) ptr @_ZSt3minImERKT_S2_S2_(ptr noundef nonnull align 8 dereferenceable(8) %7, ptr noundef nonnull align 8 dereferenceable(8) %8)
  %26 = load i64, ptr %25, align 8, !tbaa !36
  call void @_ZN5folly5RangeIPKcEC2ES2_m(ptr noundef nonnull align 8 dereferenceable(16) %4, ptr noundef %21, i64 noundef %26)
  call void @llvm.lifetime.end.p0(i64 8, ptr %8) #16
  %27 = load { ptr, ptr }, ptr %4, align 8
  ret { ptr, ptr } %27
}

; Function Attrs: mustprogress uwtable
define linkonce_odr noundef i64 @_ZNK5folly5RangeIPKcE5rfindERS1_(ptr noundef nonnull align 8 dereferenceable(16) %0, ptr noundef nonnull align 1 dereferenceable(1) %1) #0 comdat align 2 {
  %3 = alloca ptr, align 8
  %4 = alloca ptr, align 8
  %5 = alloca %"class.folly::Range", align 8
  store ptr %0, ptr %3, align 8, !tbaa !65
  store ptr %1, ptr %4, align 8, !tbaa !32
  %6 = load ptr, ptr %3, align 8
  call void @llvm.lifetime.start.p0(i64 16, ptr %5) #16
  %7 = call { ptr, ptr } @_ZNK5folly5RangeIPKcE11castToConstEv(ptr noundef nonnull align 8 dereferenceable(16) %6)
  %8 = getelementptr inbounds nuw { ptr, ptr }, ptr %5, i32 0, i32 0
  %9 = extractvalue { ptr, ptr } %7, 0
  store ptr %9, ptr %8, align 8
  %10 = getelementptr inbounds nuw { ptr, ptr }, ptr %5, i32 0, i32 1
  %11 = extractvalue { ptr, ptr } %7, 1
  store ptr %11, ptr %10, align 8
  %12 = load ptr, ptr %4, align 8, !tbaa !32
  %13 = call noundef i64 @_ZN5folly5rfindIPKcEEmRKNS_5RangeIT_EERKNS5_10value_typeE(ptr noundef nonnull align 8 dereferenceable(16) %5, ptr noundef nonnull align 1 dereferenceable(1) %12)
  call void @llvm.lifetime.end.p0(i64 16, ptr %5) #16
  ret i64 %13
}

; Function Attrs: mustprogress uwtable
define { ptr, ptr } @_ZNK5folly10LogMessage15getFileBaseNameEv(ptr noundef nonnull align 8 dereferenceable(176) %0) #0 align 2 {
  %2 = alloca %"class.folly::Range", align 8
  %3 = alloca ptr, align 8
  %4 = alloca i64, align 8
  %5 = alloca i8, align 1
  %6 = alloca i32, align 4
  store ptr %0, ptr %3, align 8, !tbaa !7
  %7 = load ptr, ptr %3, align 8
  call void @llvm.lifetime.start.p0(i64 8, ptr %4) #16
  %8 = getelementptr inbounds nuw %"class.folly::LogMessage", ptr %7, i32 0, i32 4
  call void @llvm.lifetime.start.p0(i64 1, ptr %5) #16
  store i8 47, ptr %5, align 1, !tbaa !35
  %9 = call noundef i64 @_ZNK5folly5RangeIPKcE5rfindERS1_(ptr noundef nonnull align 8 dereferenceable(16) %8, ptr noundef nonnull align 1 dereferenceable(1) %5)
  call void @llvm.lifetime.end.p0(i64 1, ptr %5) #16
  store i64 %9, ptr %4, align 8, !tbaa !36
  %10 = load i64, ptr %4, align 8, !tbaa !36
  %11 = icmp eq i64 %10, -1
  br i1 %11, label %12, label %14

12:                                               ; preds = %1
  %13 = getelementptr inbounds nuw %"class.folly::LogMessage", ptr %7, i32 0, i32 4
  call void @llvm.memcpy.p0.p0.i64(ptr align 8 %2, ptr align 8 %13, i64 16, i1 false), !tbaa.struct !31
  store i32 1, ptr %6, align 4
  br label %23

14:                                               ; preds = %1
  %15 = getelementptr inbounds nuw %"class.folly::LogMessage", ptr %7, i32 0, i32 4
  %16 = load i64, ptr %4, align 8, !tbaa !36
  %17 = add i64 %16, 1
  %18 = call { ptr, ptr } @_ZNK5folly5RangeIPKcE8subpieceEmm(ptr noundef nonnull align 8 dereferenceable(16) %15, i64 noundef %17, i64 noundef -1)
  %19 = getelementptr inbounds nuw { ptr, ptr }, ptr %2, i32 0, i32 0
  %20 = extractvalue { ptr, ptr } %18, 0
  store ptr %20, ptr %19, align 8
  %21 = getelementptr inbounds nuw { ptr, ptr }, ptr %2, i32 0, i32 1
  %22 = extractvalue { ptr, ptr } %18, 1
  store ptr %22, ptr %21, align 8
  store i32 1, ptr %6, align 4
  br label %23

23:                                               ; preds = %14, %12
  call void @llvm.lifetime.end.p0(i64 8, ptr %4) #16
  %24 = load { ptr, ptr }, ptr %2, align 8
  ret { ptr, ptr } %24
}