; Function Attrs: mustprogress uwtable
define { ptr, ptr } @_ZNK5folly10LogMessage15getFileBaseNameEv(ptr noundef nonnull readonly align 8 captures(none) dereferenceable(176) %0) local_unnamed_addr #0 align 2 {
  %2 = getelementptr inbounds nuw i8, ptr %0, i64 32
  %.sroa.0.0.copyload.i.i = load ptr, ptr %2, align 8, !tbaa !24
  %.sroa.2.0..0..sroa_idx.i.i = getelementptr inbounds nuw i8, ptr %0, i64 40
  %.sroa.2.0.copyload.i.i = load ptr, ptr %.sroa.2.0..0..sroa_idx.i.i, align 8, !tbaa !24
  %3 = icmp eq ptr %.sroa.0.0.copyload.i.i, %.sroa.2.0.copyload.i.i
  br i1 %3, label %_ZNK5folly5RangeIPKcE5rfindERS1_.exit.thread, label %4

4:                                                ; preds = %1
  %5 = ptrtoint ptr %.sroa.2.0.copyload.i.i to i64
  %6 = ptrtoint ptr %.sroa.0.0.copyload.i.i to i64
  %7 = sub i64 %5, %6
  %8 = tail call noundef ptr @_ZN5folly7memrchrEPKvim(ptr noundef %.sroa.0.0.copyload.i.i, i32 noundef 47, i64 noundef %7) #11
  %9 = icmp eq ptr %8, null
  br i1 %9, label %._ZNK5folly5RangeIPKcE5rfindERS1_.exit.thread_crit_edge, label %_ZNK5folly5RangeIPKcE5rfindERS1_.exit

._ZNK5folly5RangeIPKcE5rfindERS1_.exit.thread_crit_edge: ; preds = %4
  %.sroa.0.0.copyload.pre = load ptr, ptr %2, align 8, !tbaa !24
  %.sroa.3.0.copyload.pre = load ptr, ptr %.sroa.2.0..0..sroa_idx.i.i, align 8, !tbaa !24
  br label %_ZNK5folly5RangeIPKcE5rfindERS1_.exit.thread

_ZNK5folly5RangeIPKcE5rfindERS1_.exit:            ; preds = %4
  %10 = ptrtoint ptr %8 to i64
  %11 = sub i64 %10, %6
  %12 = icmp eq i64 %11, -1
  %.sroa.0.0.copyload.pre4 = load ptr, ptr %2, align 8, !tbaa !24
  %.sroa.3.0.copyload.pre6 = load ptr, ptr %.sroa.2.0..0..sroa_idx.i.i, align 8, !tbaa !24
  br i1 %12, label %_ZNK5folly5RangeIPKcE5rfindERS1_.exit.thread, label %13

13:                                               ; preds = %_ZNK5folly5RangeIPKcE5rfindERS1_.exit
  %14 = ptrtoint ptr %.sroa.3.0.copyload.pre6 to i64
  %15 = ptrtoint ptr %.sroa.0.0.copyload.pre4 to i64
  %16 = sub i64 %14, %15
  %.not = icmp ult i64 %11, %16
  br i1 %.not, label %_ZNK5folly5RangeIPKcE8subpieceEmm.exit, label %17, !prof !51

17:                                               ; preds = %13
  tail call void @_ZN5folly6detail16throw_exception_ISt12out_of_rangeJPKcEEEvDpT0_(ptr noundef nonnull @.str) #8
  unreachable

_ZNK5folly5RangeIPKcE8subpieceEmm.exit:           ; preds = %13
  %18 = getelementptr i8, ptr %.sroa.0.0.copyload.pre4, i64 %11
  %19 = getelementptr i8, ptr %18, i64 1
  %20 = getelementptr inbounds nuw i8, ptr %.sroa.0.0.copyload.pre4, i64 %16
  br label %_ZNK5folly5RangeIPKcE5rfindERS1_.exit.thread

_ZNK5folly5RangeIPKcE5rfindERS1_.exit.thread:     ; preds = %_ZNK5folly5RangeIPKcE5rfindERS1_.exit, %1, %._ZNK5folly5RangeIPKcE5rfindERS1_.exit.thread_crit_edge, %_ZNK5folly5RangeIPKcE8subpieceEmm.exit
  %.sroa.0.0.copyload.pn = phi ptr [ %19, %_ZNK5folly5RangeIPKcE8subpieceEmm.exit ], [ %.sroa.0.0.copyload.pre, %._ZNK5folly5RangeIPKcE5rfindERS1_.exit.thread_crit_edge ], [ %.sroa.0.0.copyload.i.i, %1 ], [ %.sroa.0.0.copyload.pre4, %_ZNK5folly5RangeIPKcE5rfindERS1_.exit ]
  %.sroa.3.0.copyload.pn = phi ptr [ %20, %_ZNK5folly5RangeIPKcE8subpieceEmm.exit ], [ %.sroa.3.0.copyload.pre, %._ZNK5folly5RangeIPKcE5rfindERS1_.exit.thread_crit_edge ], [ %.sroa.2.0.copyload.i.i, %1 ], [ %.sroa.3.0.copyload.pre6, %_ZNK5folly5RangeIPKcE5rfindERS1_.exit ]
  %.pn = insertvalue { ptr, ptr } poison, ptr %.sroa.0.0.copyload.pn, 0
  %.fca.1.insert.merged = insertvalue { ptr, ptr } %.pn, ptr %.sroa.3.0.copyload.pn, 1
  ret { ptr, ptr } %.fca.1.insert.merged
}